target datalayout = "e-m:e-p270:32:32-p271:32:32-p272:64:64-i64:64-i128:128-f80:128-n8:16:32:64-S128"
target triple = "x86_64-pc-linux-gnu"

%struct.H5D_shared_t = type { i64, i8, i64, ptr, ptr, i64, i64, %struct.H5D_dcpl_cache_t, %struct.H5O_layout_t, i8, i32, [32 x i64], [32 x i64], [32 x i64], %struct.anon.6, %struct.H5D_append_flush_t, ptr, ptr }
%struct.H5D_dcpl_cache_t = type { %struct.H5O_fill_t, %struct.H5O_pline_t, %struct.H5O_efl_t }
%struct.H5O_fill_t = type { %struct.H5O_shared_t, i32, ptr, i64, ptr, i32, i32, i8 }
%struct.H5O_shared_t = type { i32, ptr, i32, %union.anon }
%union.anon = type { %struct.H5O_mesg_loc_t }
%struct.H5O_mesg_loc_t = type { i32, i64 }
%struct.H5O_pline_t = type { %struct.H5O_shared_t, i32, i64, i64, ptr }
%struct.H5O_efl_t = type { i64, i64, i64, ptr }
%struct.H5O_layout_t = type { i32, i32, ptr, %union.anon.0, %struct.H5O_storage_t }
%union.anon.0 = type { %struct.H5O_layout_chunk_t }
%struct.H5O_layout_chunk_t = type { i32, i8, i32, [33 x i32], i32, i32, i64, i64, [33 x i64], [33 x i64], [33 x i64], [33 x i64], %union.anon.1 }
%union.anon.1 = type { %struct.H5O_layout_chunk_earray_t }
%struct.H5O_layout_chunk_earray_t = type { %struct.anon.2, i32, [33 x i32], [33 x i64], [33 x i64] }
%struct.anon.2 = type { i8, i8, i8, i8, i8 }
%struct.H5O_storage_t = type { i32, %union.anon.4 }
%union.anon.4 = type { %struct.H5O_storage_virtual_t }
%struct.H5O_storage_virtual_t = type { %struct.H5HG_t, i64, ptr, i64, [32 x i64], i32, i64, i64, i64, i8 }
%struct.H5HG_t = type { i64, i64 }
%struct.anon.6 = type { %struct.H5D_rdcdc_t, %struct.H5D_rdcc_t }
%struct.H5D_rdcdc_t = type { ptr, i64, i64, i64, i8 }
%struct.H5D_rdcc_t = type { %struct.anon.7, i64, i64, double, ptr, ptr, ptr, i64, i32, %struct.H5D_chunk_cached_t, ptr, ptr, ptr, ptr, [32 x i64], [32 x i64], [32 x i32] }
%struct.anon.7 = type { i32, i32, i32, i32 }
%struct.H5D_chunk_cached_t = type { i8, [33 x i64], i64, i32, i64, i32 }
%struct.H5D_append_flush_t = type { i32, [32 x i64], ptr, ptr }

@H5D_init_g = external global i8, align 1
@H5_libterm_g = external global i8, align 1
@.str.2 = private unnamed_addr constant [100 x i8] c"generated/home/dtcxzyw/WorkSpace/Projects/compilers/llvm-opt-benchmark/bench/hdf5/hdf5/src/H5Dint.c\00", align 1
@H5E_CANTINIT_g = external global i64, align 8
@__func__.H5D__init_package = private unnamed_addr constant [18 x i8] c"H5D__init_package\00", align 1
@H5E_DATASET_g = external global i64, align 8
@.str.4 = private unnamed_addr constant [31 x i8] c"unable to initialize interface\00", align 1
@H5D_def_dset = internal global %struct.H5D_shared_t zeroinitializer, align 8
@H5P_LST_DATASET_CREATE_ID_g = external global i64, align 8
@H5E_BADTYPE_g = external global i64, align 8
@.str.5 = private unnamed_addr constant [49 x i8] c"can't get default dataset creation property list\00", align 1
@.str.6 = private unnamed_addr constant [7 x i8] c"layout\00", align 1
@H5E_PLIST_g = external global i64, align 8
@H5E_CANTGET_g = external global i64, align 8
@.str.7 = private unnamed_addr constant [22 x i8] c"can't retrieve layout\00", align 1
@.str.8 = private unnamed_addr constant [4 x i8] c"efl\00", align 1
@.str.9 = private unnamed_addr constant [34 x i8] c"can't retrieve external file list\00", align 1
@.str.10 = private unnamed_addr constant [11 x i8] c"fill_value\00", align 1
@.str.11 = private unnamed_addr constant [26 x i8] c"can't retrieve fill value\00", align 1
@.str.12 = private unnamed_addr constant [6 x i8] c"pline\00", align 1
@.str.13 = private unnamed_addr constant [31 x i8] c"can't retrieve pipeline filter\00", align 1
@H5D_top_package_initialize_s = internal global i8 0, align 1
@.str.14 = private unnamed_addr constant [16 x i8] c"HDF5_VDS_PREFIX\00", align 1
@H5D_prefix_vds_env = internal global ptr null, align 8
@.str.15 = private unnamed_addr constant [20 x i8] c"HDF5_EXTFILE_PREFIX\00", align 1
@H5D_prefix_ext_env = internal global ptr null, align 8
@H5I_DATASET_CLS = internal constant [1 x { i32, i32, i32, [4 x i8], ptr }] [{ i32, i32, i32, [4 x i8], ptr } { i32 5, i32 0, i32 0, [4 x i8] zeroinitializer, ptr @H5D__close_cb }], align 16

; Function Attrs: nounwind uwtable
define i32 @H5D__init_package() #0 {
  %1 = alloca ptr, align 8
  %2 = alloca i32, align 4
  %3 = alloca i8, align 1
  call void @llvm.lifetime.start.p0(i64 8, ptr %1) #12
  call void @llvm.lifetime.start.p0(i64 4, ptr %2) #12
  store i32 0, ptr %2, align 4, !tbaa !3
  call void @llvm.lifetime.start.p0(i64 1, ptr %3) #12
  store i8 0, ptr %3, align 1, !tbaa !7
  %4 = load i8, ptr @H5D_init_g, align 1, !tbaa !7, !range !9, !noundef !10
  %5 = trunc i8 %4 to i1
  br i1 %5, label %10, label %6

6:                                                ; preds = %0
  %7 = load i8, ptr @H5_libterm_g, align 1, !tbaa !7, !range !9, !noundef !10
  %8 = trunc i8 %7 to i1
  %9 = xor i1 %8, true
  br label %10

10:                                               ; preds = %6, %0
  %11 = phi i1 [ true, %0 ], [ %9, %6 ]
  %12 = xor i1 %11, true
  %13 = xor i1 %12, true
  %14 = zext i1 %13 to i32
  %15 = sext i32 %14 to i64
  %16 = call i64 @llvm.expect.i64(i64 %15, i64 1)
  %17 = icmp ne i64 %16, 0
  br i1 %17, label %18, label %159

18:                                               ; preds = %10
  %19 = call i32 @H5I_register_type(ptr noundef @H5I_DATASET_CLS)
  %20 = icmp slt i32 %19, 0
  br i1 %20, label %21, label %40

21:                                               ; preds = %18
  br label %22

22:                                               ; preds = %21
  br label %23

23:                                               ; preds = %22
  br label %24

24:                                               ; preds = %23
  %25 = load i64, ptr @H5E_DATASET_g, align 8, !tbaa !11
  %26 = load i64, ptr @H5E_CANTINIT_g, align 8, !tbaa !11
  %27 = call i32 (ptr, ptr, i32, i64, i64, ptr, ...) @H5E_printf_stack(ptr noundef @.str.2, ptr noundef @__func__.H5D__init_package, i32 noundef 198, i64 noundef %25, i64 noundef %26, ptr noundef @.str.4)
  br label %28

28:                                               ; preds = %24
  br label %29

29:                                               ; preds = %28
  store i8 1, ptr %3, align 1, !tbaa !7
  %30 = load i8, ptr %3, align 1, !tbaa !7, !range !9, !noundef !10
  %31 = trunc i8 %30 to i1
  %32 = zext i1 %31 to i8
  store i8 %32, ptr %3, align 1, !tbaa !7
  br label %33

33:                                               ; preds = %29
  br label %34

34:                                               ; preds = %33
  br label %35

35:                                               ; preds = %34
  store i32 -1, ptr %2, align 4, !tbaa !3
  br label %158

36:                                               ; No predecessors!
  br label %37

37:                                               ; preds = %36
  br label %38

38:                                               ; preds = %37
  br label %39

39:                                               ; preds = %38
  br label %40

40:                                               ; preds = %39, %18
  call void @llvm.memset.p0.i64(ptr align 8 @H5D_def_dset, i8 0, i64 4672, i1 false)
  store i64 -1, ptr getelementptr inbounds nuw (%struct.H5D_shared_t, ptr @H5D_def_dset, i32 0, i32 2), align 8, !tbaa !13
  store i64 -1, ptr getelementptr inbounds nuw (%struct.H5D_shared_t, ptr @H5D_def_dset, i32 0, i32 6), align 8, !tbaa !41
  store i64 -1, ptr getelementptr inbounds nuw (%struct.H5D_shared_t, ptr @H5D_def_dset, i32 0, i32 5), align 8, !tbaa !42
  %41 = load i64, ptr @H5P_LST_DATASET_CREATE_ID_g, align 8, !tbaa !11
  %42 = call ptr @H5I_object(i64 noundef %41)
  store ptr %42, ptr %1, align 8, !tbaa !43
  %43 = icmp eq ptr null, %42
  br i1 %43, label %44, label %63

44:                                               ; preds = %40
  br label %45

45:                                               ; preds = %44
  br label %46

46:                                               ; preds = %45
  br label %47

47:                                               ; preds = %46
  %48 = load i64, ptr @H5E_DATASET_g, align 8, !tbaa !11
  %49 = load i64, ptr @H5E_BADTYPE_g, align 8, !tbaa !11
  %50 = call i32 (ptr, ptr, i32, i64, i64, ptr, ...) @H5E_printf_stack(ptr noundef @.str.2, ptr noundef @__func__.H5D__init_package, i32 noundef 210, i64 noundef %48, i64 noundef %49, ptr noundef @.str.5)
  br label %51

51:                                               ; preds = %47
  br label %52

52:                                               ; preds = %51
  store i8 1, ptr %3, align 1, !tbaa !7
  %53 = load i8, ptr %3, align 1, !tbaa !7, !range !9, !noundef !10
  %54 = trunc i8 %53 to i1
  %55 = zext i1 %54 to i8
  store i8 %55, ptr %3, align 1, !tbaa !7
  br label %56

56:                                               ; preds = %52
  br label %57

57:                                               ; preds = %56
  br label %58

58:                                               ; preds = %57
  store i32 -1, ptr %2, align 4, !tbaa !3
  br label %158

59:                                               ; No predecessors!
  br label %60

60:                                               ; preds = %59
  br label %61

61:                                               ; preds = %60
  br label %62

62:                                               ; preds = %61
  br label %63

63:                                               ; preds = %62, %40
  %64 = load ptr, ptr %1, align 8, !tbaa !43
  %65 = call i32 @H5P_get(ptr noundef %64, ptr noundef @.str.6, ptr noundef getelementptr inbounds nuw (%struct.H5D_shared_t, ptr @H5D_def_dset, i32 0, i32 8))
  %66 = icmp slt i32 %65, 0
  br i1 %66, label %67, label %86

67:                                               ; preds = %63
  br label %68

68:                                               ; preds = %67
  br label %69

69:                                               ; preds = %68
  br label %70

70:                                               ; preds = %69
  %71 = load i64, ptr @H5E_PLIST_g, align 8, !tbaa !11
  %72 = load i64, ptr @H5E_CANTGET_g, align 8, !tbaa !11
  %73 = call i32 (ptr, ptr, i32, i64, i64, ptr, ...) @H5E_printf_stack(ptr noundef @.str.2, ptr noundef @__func__.H5D__init_package, i32 noundef 214, i64 noundef %71, i64 noundef %72, ptr noundef @.str.7)
  br label %74

74:                                               ; preds = %70
  br label %75

75:                                               ; preds = %74
  store i8 1, ptr %3, align 1, !tbaa !7
  %76 = load i8, ptr %3, align 1, !tbaa !7, !range !9, !noundef !10
  %77 = trunc i8 %76 to i1
  %78 = zext i1 %77 to i8
  store i8 %78, ptr %3, align 1, !tbaa !7
  br label %79

79:                                               ; preds = %75
  br label %80

80:                                               ; preds = %79
  br label %81

81:                                               ; preds = %80
  store i32 -1, ptr %2, align 4, !tbaa !3
  br label %158

82:                                               ; No predecessors!
  br label %83

83:                                               ; preds = %82
  br label %84

84:                                               ; preds = %83
  br label %85

85:                                               ; preds = %84
  br label %86

86:                                               ; preds = %85, %63
  %87 = load ptr, ptr %1, align 8, !tbaa !43
  %88 = call i32 @H5P_get(ptr noundef %87, ptr noundef @.str.8, ptr noundef getelementptr inbounds nuw (%struct.H5D_dcpl_cache_t, ptr getelementptr inbounds nuw (%struct.H5D_shared_t, ptr @H5D_def_dset, i32 0, i32 7), i32 0, i32 2))
  %89 = icmp slt i32 %88, 0
  br i1 %89, label %90, label %109

90:                                               ; preds = %86
  br label %91

91:                                               ; preds = %90
  br label %92

92:                                               ; preds = %91
  br label %93

93:                                               ; preds = %92
  %94 = load i64, ptr @H5E_PLIST_g, align 8, !tbaa !11
  %95 = load i64, ptr @H5E_CANTGET_g, align 8, !tbaa !11
  %96 = call i32 (ptr, ptr, i32, i64, i64, ptr, ...) @H5E_printf_stack(ptr noundef @.str.2, ptr noundef @__func__.H5D__init_package, i32 noundef 218, i64 noundef %94, i64 noundef %95, ptr noundef @.str.9)
  br label %97

97:                                               ; preds = %93
  br label %98

98:                                               ; preds = %97
  store i8 1, ptr %3, align 1, !tbaa !7
  %99 = load i8, ptr %3, align 1, !tbaa !7, !range !9, !noundef !10
  %100 = trunc i8 %99 to i1
  %101 = zext i1 %100 to i8
  store i8 %101, ptr %3, align 1, !tbaa !7
  br label %102

102:                                              ; preds = %98
  br label %103

103:                                              ; preds = %102
  br label %104

104:                                              ; preds = %103
  store i32 -1, ptr %2, align 4, !tbaa !3
  br label %158

105:                                              ; No predecessors!
  br label %106

106:                                              ; preds = %105
  br label %107

107:                                              ; preds = %106
  br label %108

108:                                              ; preds = %107
  br label %109

109:                                              ; preds = %108, %86
  %110 = load ptr, ptr %1, align 8, !tbaa !43
  %111 = call i32 @H5P_get(ptr noundef %110, ptr noundef @.str.10, ptr noundef getelementptr inbounds nuw (%struct.H5D_shared_t, ptr @H5D_def_dset, i32 0, i32 7))
  %112 = icmp slt i32 %111, 0
  br i1 %112, label %113, label %132

113:                                              ; preds = %109
  br label %114

114:                                              ; preds = %113
  br label %115

115:                                              ; preds = %114
  br label %116

116:                                              ; preds = %115
  %117 = load i64, ptr @H5E_PLIST_g, align 8, !tbaa !11
  %118 = load i64, ptr @H5E_CANTGET_g, align 8, !tbaa !11
  %119 = call i32 (ptr, ptr, i32, i64, i64, ptr, ...) @H5E_printf_stack(ptr noundef @.str.2, ptr noundef @__func__.H5D__init_package, i32 noundef 220, i64 noundef %117, i64 noundef %118, ptr noundef @.str.11)
  br label %120

120:                                              ; preds = %116
  br label %121

121:                                              ; preds = %120
  store i8 1, ptr %3, align 1, !tbaa !7
  %122 = load i8, ptr %3, align 1, !tbaa !7, !range !9, !noundef !10
  %123 = trunc i8 %122 to i1
  %124 = zext i1 %123 to i8
  store i8 %124, ptr %3, align 1, !tbaa !7
  br label %125

125:                                              ; preds = %121
  br label %126

126:                                              ; preds = %125
  br label %127

127:                                              ; preds = %126
  store i32 -1, ptr %2, align 4, !tbaa !3
  br label %158

128:                                              ; No predecessors!
  br label %129

129:                                              ; preds = %128
  br label %130

130:                                              ; preds = %129
  br label %131

131:                                              ; preds = %130
  br label %132

132:                                              ; preds = %131, %109
  %133 = load ptr, ptr %1, align 8, !tbaa !43
  %134 = call i32 @H5P_get(ptr noundef %133, ptr noundef @.str.12, ptr noundef getelementptr inbounds nuw (%struct.H5D_dcpl_cache_t, ptr getelementptr inbounds nuw (%struct.H5D_shared_t, ptr @H5D_def_dset, i32 0, i32 7), i32 0, i32 1))
  %135 = icmp slt i32 %134, 0
  br i1 %135, label %136, label %155

136:                                              ; preds = %132
  br label %137

137:                                              ; preds = %136
  br label %138

138:                                              ; preds = %137
  br label %139

139:                                              ; preds = %138
  %140 = load i64, ptr @H5E_PLIST_g, align 8, !tbaa !11
  %141 = load i64, ptr @H5E_CANTGET_g, align 8, !tbaa !11
  %142 = call i32 (ptr, ptr, i32, i64, i64, ptr, ...) @H5E_printf_stack(ptr noundef @.str.2, ptr noundef @__func__.H5D__init_package, i32 noundef 222, i64 noundef %140, i64 noundef %141, ptr noundef @.str.13)
  br label %143

143:                                              ; preds = %139
  br label %144

144:                                              ; preds = %143
  store i8 1, ptr %3, align 1, !tbaa !7
  %145 = load i8, ptr %3, align 1, !tbaa !7, !range !9, !noundef !10
  %146 = trunc i8 %145 to i1
  %147 = zext i1 %146 to i8
  store i8 %147, ptr %3, align 1, !tbaa !7
  br label %148

148:                                              ; preds = %144
  br label %149

149:                                              ; preds = %148
  br label %150

150:                                              ; preds = %149
  store i32 -1, ptr %2, align 4, !tbaa !3
  br label %158

151:                                              ; No predecessors!
  br label %152

152:                                              ; preds = %151
  br label %153

153:                                              ; preds = %152
  br label %154

154:                                              ; preds = %153
  br label %155

155:                                              ; preds = %154, %132
  store i8 1, ptr @H5D_top_package_initialize_s, align 1, !tbaa !7
  %156 = call ptr @getenv(ptr noundef @.str.14) #12
  store ptr %156, ptr @H5D_prefix_vds_env, align 8, !tbaa !45
  %157 = call ptr @getenv(ptr noundef @.str.15) #12
  store ptr %157, ptr @H5D_prefix_ext_env, align 8, !tbaa !45
  br label %158

158:                                              ; preds = %155, %150, %127, %104, %81, %58, %35
  br label %159

159:                                              ; preds = %158, %10
  %160 = load i32, ptr %2, align 4, !tbaa !3
  call void @llvm.lifetime.end.p0(i64 1, ptr %3) #12
  call void @llvm.lifetime.end.p0(i64 4, ptr %2) #12
  call void @llvm.lifetime.end.p0(i64 8, ptr %1) #12
  ret i32 %160
}