; Function Attrs: nounwind uwtable
define range(i32 -1, 1) i32 @H5D__init_package() local_unnamed_addr #0 {
  %1 = load i8, ptr @H5D_init_g, align 1, !tbaa !3, !range !7, !noundef !8
  %2 = trunc nuw i8 %1 to i1
  %3 = load i8, ptr @H5_libterm_g, align 1, !range !7
  %4 = trunc nuw i8 %3 to i1
  %5 = xor i1 %4, true
  %6 = select i1 %2, i1 true, i1 %5
  br i1 %6, label %7, label %53, !prof !9

7:                                                ; preds = %0
  %8 = tail call i32 @H5I_register_type(ptr noundef nonnull @H5I_DATASET_CLS) #12
  %9 = icmp slt i32 %8, 0
  br i1 %9, label %10, label %14

10:                                               ; preds = %7
  %11 = load i64, ptr @H5E_DATASET_g, align 8, !tbaa !10
  %12 = load i64, ptr @H5E_CANTINIT_g, align 8, !tbaa !10
  %13 = tail call i32 (ptr, ptr, i32, i64, i64, ptr, ...) @H5E_printf_stack(ptr noundef nonnull @.str.2, ptr noundef nonnull @__func__.H5D__init_package, i32 noundef 198, i64 noundef %11, i64 noundef %12, ptr noundef nonnull @.str.4) #12
  br label %53

14:                                               ; preds = %7
  tail call void @llvm.memset.p0.i64(ptr noundef nonnull align 8 dereferenceable(4672) @H5D_def_dset, i8 0, i64 4672, i1 false)
  store i64 -1, ptr getelementptr inbounds nuw (i8, ptr @H5D_def_dset, i64 16), align 8, !tbaa !12
  tail call void @llvm.memset.p0.i64(ptr noundef nonnull align 8 dereferenceable(16) getelementptr inbounds nuw (i8, ptr @H5D_def_dset, i64 40), i8 -1, i64 16, i1 false)
  %15 = load i64, ptr @H5P_LST_DATASET_CREATE_ID_g, align 8, !tbaa !10
  %16 = tail call ptr @H5I_object(i64 noundef %15) #12
  %17 = icmp eq ptr %16, null
  br i1 %17, label %18, label %22

18:                                               ; preds = %14
  %19 = load i64, ptr @H5E_DATASET_g, align 8, !tbaa !10
  %20 = load i64, ptr @H5E_BADTYPE_g, align 8, !tbaa !10
  %21 = tail call i32 (ptr, ptr, i32, i64, i64, ptr, ...) @H5E_printf_stack(ptr noundef nonnull @.str.2, ptr noundef nonnull @__func__.H5D__init_package, i32 noundef 210, i64 noundef %19, i64 noundef %20, ptr noundef nonnull @.str.5) #12
  br label %53

22:                                               ; preds = %14
  %23 = tail call i32 @H5P_get(ptr noundef nonnull %16, ptr noundef nonnull @.str.6, ptr noundef nonnull getelementptr inbounds nuw (i8, ptr @H5D_def_dset, i64 248)) #12
  %24 = icmp slt i32 %23, 0
  br i1 %24, label %25, label %29

25:                                               ; preds = %22
  %26 = load i64, ptr @H5E_PLIST_g, align 8, !tbaa !10
  %27 = load i64, ptr @H5E_CANTGET_g, align 8, !tbaa !10
  %28 = tail call i32 (ptr, ptr, i32, i64, i64, ptr, ...) @H5E_printf_stack(ptr noundef nonnull @.str.2, ptr noundef nonnull @__func__.H5D__init_package, i32 noundef 214, i64 noundef %26, i64 noundef %27, ptr noundef nonnull @.str.7) #12
  br label %53

29:                                               ; preds = %22
  %30 = tail call i32 @H5P_get(ptr noundef nonnull %16, ptr noundef nonnull @.str.8, ptr noundef nonnull getelementptr inbounds nuw (i8, ptr @H5D_def_dset, i64 216)) #12
  %31 = icmp slt i32 %30, 0
  br i1 %31, label %32, label %36

32:                                               ; preds = %29
  %33 = load i64, ptr @H5E_PLIST_g, align 8, !tbaa !10
  %34 = load i64, ptr @H5E_CANTGET_g, align 8, !tbaa !10
  %35 = tail call i32 (ptr, ptr, i32, i64, i64, ptr, ...) @H5E_printf_stack(ptr noundef nonnull @.str.2, ptr noundef nonnull @__func__.H5D__init_package, i32 noundef 218, i64 noundef %33, i64 noundef %34, ptr noundef nonnull @.str.9) #12
  br label %53

36:                                               ; preds = %29
  %37 = tail call i32 @H5P_get(ptr noundef nonnull %16, ptr noundef nonnull @.str.10, ptr noundef nonnull getelementptr inbounds nuw (i8, ptr @H5D_def_dset, i64 56)) #12
  %38 = icmp slt i32 %37, 0
  br i1 %38, label %39, label %43

39:                                               ; preds = %36
  %40 = load i64, ptr @H5E_PLIST_g, align 8, !tbaa !10
  %41 = load i64, ptr @H5E_CANTGET_g, align 8, !tbaa !10
  %42 = tail call i32 (ptr, ptr, i32, i64, i64, ptr, ...) @H5E_printf_stack(ptr noundef nonnull @.str.2, ptr noundef nonnull @__func__.H5D__init_package, i32 noundef 220, i64 noundef %40, i64 noundef %41, ptr noundef nonnull @.str.11) #12
  br label %53

43:                                               ; preds = %36
  %44 = tail call i32 @H5P_get(ptr noundef nonnull %16, ptr noundef nonnull @.str.12, ptr noundef nonnull getelementptr inbounds nuw (i8, ptr @H5D_def_dset, i64 144)) #12
  %45 = icmp slt i32 %44, 0
  br i1 %45, label %46, label %50

46:                                               ; preds = %43
  %47 = load i64, ptr @H5E_PLIST_g, align 8, !tbaa !10
  %48 = load i64, ptr @H5E_CANTGET_g, align 8, !tbaa !10
  %49 = tail call i32 (ptr, ptr, i32, i64, i64, ptr, ...) @H5E_printf_stack(ptr noundef nonnull @.str.2, ptr noundef nonnull @__func__.H5D__init_package, i32 noundef 222, i64 noundef %47, i64 noundef %48, ptr noundef nonnull @.str.13) #12
  br label %53

50:                                               ; preds = %43
  store i1 true, ptr @H5D_top_package_initialize_s, align 1
  %51 = tail call ptr @getenv(ptr noundef nonnull @.str.14) #12
  store ptr %51, ptr @H5D_prefix_vds_env, align 8, !tbaa !41
  %52 = tail call ptr @getenv(ptr noundef nonnull @.str.15) #12
  store ptr %52, ptr @H5D_prefix_ext_env, align 8, !tbaa !41
  br label %53

53:                                               ; preds = %10, %18, %25, %32, %39, %46, %50, %0
  %.0 = phi i32 [ -1, %10 ], [ -1, %18 ], [ -1, %25 ], [ -1, %32 ], [ -1, %39 ], [ -1, %46 ], [ 0, %50 ], [ 0, %0 ]
  ret i32 %.0
}